target datalayout = "e-m:e-p270:32:32-p271:32:32-p272:64:64-i64:64-i128:128-f80:128-n8:16:32:64-S128"
target triple = "x86_64-pc-linux-gnu"

%struct.Vec_Int_t_ = type { i32, i32, ptr }
%struct.Acb_Mfs_t_ = type { ptr, ptr, [3 x ptr], ptr, ptr, ptr, i32, i32, i32, i32, [8 x i32], i32, i32, i64, i64, i64, i64, i64, i64, i64 }
%struct.timespec = type { i64, i64 }

; Function Attrs: inlinehint nounwind uwtable
define internal ptr @Vec_IntAlloc(i32 noundef %0) #1 {
  %2 = alloca i32, align 4
  %3 = alloca ptr, align 8
  store i32 %0, ptr %2, align 4, !tbaa !7
  call void @llvm.lifetime.start.p0(i64 8, ptr %3) #12
  %4 = call noalias ptr @malloc(i64 noundef 16) #14
  store ptr %4, ptr %3, align 8, !tbaa !9
  %5 = load i32, ptr %2, align 4, !tbaa !7
  %6 = icmp sgt i32 %5, 0
  br i1 %6, label %7, label %11

7:                                                ; preds = %1
  %8 = load i32, ptr %2, align 4, !tbaa !7
  %9 = icmp slt i32 %8, 16
  br i1 %9, label %10, label %11

10:                                               ; preds = %7
  store i32 16, ptr %2, align 4, !tbaa !7
  br label %11

11:                                               ; preds = %10, %7, %1
  %12 = load ptr, ptr %3, align 8, !tbaa !9
  %13 = getelementptr inbounds nuw %struct.Vec_Int_t_, ptr %12, i32 0, i32 1
  store i32 0, ptr %13, align 4, !tbaa !24
  %14 = load i32, ptr %2, align 4, !tbaa !7
  %15 = load ptr, ptr %3, align 8, !tbaa !9
  %16 = getelementptr inbounds nuw %struct.Vec_Int_t_, ptr %15, i32 0, i32 0
  store i32 %14, ptr %16, align 8, !tbaa !34
  %17 = load ptr, ptr %3, align 8, !tbaa !9
  %18 = getelementptr inbounds nuw %struct.Vec_Int_t_, ptr %17, i32 0, i32 0
  %19 = load i32, ptr %18, align 8, !tbaa !34
  %20 = icmp ne i32 %19, 0
  br i1 %20, label %21, label %28

21:                                               ; preds = %11
  %22 = load ptr, ptr %3, align 8, !tbaa !9
  %23 = getelementptr inbounds nuw %struct.Vec_Int_t_, ptr %22, i32 0, i32 0
  %24 = load i32, ptr %23, align 8, !tbaa !34
  %25 = sext i32 %24 to i64
  %26 = mul i64 4, %25
  %27 = call noalias ptr @malloc(i64 noundef %26) #14
  br label %29

28:                                               ; preds = %11
  br label %29

29:                                               ; preds = %28, %21
  %30 = phi ptr [ %27, %21 ], [ null, %28 ]
  %31 = load ptr, ptr %3, align 8, !tbaa !9
  %32 = getelementptr inbounds nuw %struct.Vec_Int_t_, ptr %31, i32 0, i32 2
  store ptr %30, ptr %32, align 8, !tbaa !27
  %33 = load ptr, ptr %3, align 8, !tbaa !9
  call void @llvm.lifetime.end.p0(i64 8, ptr %3) #12
  ret ptr %33
}

; Function Attrs: inlinehint nounwind uwtable
define internal i64 @Abc_Clock() #1 {
  %1 = alloca i64, align 8
  %2 = alloca %struct.timespec, align 8
  %3 = alloca i32, align 4
  %4 = alloca i64, align 8
  call void @llvm.lifetime.start.p0(i64 16, ptr %2) #12
  %5 = call i32 @clock_gettime(i32 noundef 1, ptr noundef %2) #12
  %6 = icmp slt i32 %5, 0
  br i1 %6, label %7, label %8

7:                                                ; preds = %0
  store i64 -1, ptr %1, align 8
  store i32 1, ptr %3, align 4
  br label %19

8:                                                ; preds = %0
  call void @llvm.lifetime.start.p0(i64 8, ptr %4) #12
  %9 = getelementptr inbounds nuw %struct.timespec, ptr %2, i32 0, i32 0
  %10 = load i64, ptr %9, align 8, !tbaa !230
  %11 = mul nsw i64 %10, 1000000
  store i64 %11, ptr %4, align 8, !tbaa !3
  %12 = getelementptr inbounds nuw %struct.timespec, ptr %2, i32 0, i32 1
  %13 = load i64, ptr %12, align 8, !tbaa !232
  %14 = mul nsw i64 %13, 1000000
  %15 = sdiv i64 %14, 1000000000
  %16 = load i64, ptr %4, align 8, !tbaa !3
  %17 = add nsw i64 %16, %15
  store i64 %17, ptr %4, align 8, !tbaa !3
  %18 = load i64, ptr %4, align 8, !tbaa !3
  store i64 %18, ptr %1, align 8
  store i32 1, ptr %3, align 4
  call void @llvm.lifetime.end.p0(i64 8, ptr %4) #12
  br label %19

19:                                               ; preds = %8, %7
  call void @llvm.lifetime.end.p0(i64 16, ptr %2) #12
  %20 = load i64, ptr %1, align 8
  ret i64 %20
}

; Function Attrs: nounwind uwtable
define ptr @Acb_MfsStart(ptr noundef %0, ptr noundef %1) #0 {
  %3 = alloca ptr, align 8
  %4 = alloca ptr, align 8
  %5 = alloca ptr, align 8
  store ptr %0, ptr %3, align 8, !tbaa !28
  store ptr %1, ptr %4, align 8, !tbaa !148
  call void @llvm.lifetime.start.p0(i64 8, ptr %5) #12
  %6 = call noalias ptr @calloc(i64 noundef 1, i64 noundef 176) #15
  store ptr %6, ptr %5, align 8, !tbaa !150
  %7 = load ptr, ptr %3, align 8, !tbaa !28
  %8 = load ptr, ptr %5, align 8, !tbaa !150
  %9 = getelementptr inbounds nuw %struct.Acb_Mfs_t_, ptr %8, i32 0, i32 0
  store ptr %7, ptr %9, align 8, !tbaa !152
  %10 = load ptr, ptr %4, align 8, !tbaa !148
  %11 = load ptr, ptr %5, align 8, !tbaa !150
  %12 = getelementptr inbounds nuw %struct.Acb_Mfs_t_, ptr %11, i32 0, i32 1
  store ptr %10, ptr %12, align 8, !tbaa !154
  %13 = call i64 @Abc_Clock()
  %14 = load ptr, ptr %5, align 8, !tbaa !150
  %15 = getelementptr inbounds nuw %struct.Acb_Mfs_t_, ptr %14, i32 0, i32 13
  store i64 %13, ptr %15, align 8, !tbaa !155
  %16 = call ptr @sat_solver_new()
  %17 = load ptr, ptr %5, align 8, !tbaa !150
  %18 = getelementptr inbounds nuw %struct.Acb_Mfs_t_, ptr %17, i32 0, i32 2
  %19 = getelementptr inbounds [3 x ptr], ptr %18, i64 0, i64 0
  store ptr %16, ptr %19, align 8, !tbaa !37
  %20 = call ptr @sat_solver_new()
  %21 = load ptr, ptr %5, align 8, !tbaa !150
  %22 = getelementptr inbounds nuw %struct.Acb_Mfs_t_, ptr %21, i32 0, i32 2
  %23 = getelementptr inbounds [3 x ptr], ptr %22, i64 0, i64 1
  store ptr %20, ptr %23, align 8, !tbaa !37
  %24 = call ptr @sat_solver_new()
  %25 = load ptr, ptr %5, align 8, !tbaa !150
  %26 = getelementptr inbounds nuw %struct.Acb_Mfs_t_, ptr %25, i32 0, i32 2
  %27 = getelementptr inbounds [3 x ptr], ptr %26, i64 0, i64 2
  store ptr %24, ptr %27, align 8, !tbaa !37
  %28 = call ptr @Vec_IntAlloc(i32 noundef 100)
  %29 = load ptr, ptr %5, align 8, !tbaa !150
  %30 = getelementptr inbounds nuw %struct.Acb_Mfs_t_, ptr %29, i32 0, i32 3
  store ptr %28, ptr %30, align 8, !tbaa !156
  %31 = call ptr @Vec_IntAlloc(i32 noundef 100)
  %32 = load ptr, ptr %5, align 8, !tbaa !150
  %33 = getelementptr inbounds nuw %struct.Acb_Mfs_t_, ptr %32, i32 0, i32 4
  store ptr %31, ptr %33, align 8, !tbaa !157
  %34 = call ptr @Vec_IntAlloc(i32 noundef 100)
  %35 = load ptr, ptr %5, align 8, !tbaa !150
  %36 = getelementptr inbounds nuw %struct.Acb_Mfs_t_, ptr %35, i32 0, i32 5
  store ptr %34, ptr %36, align 8, !tbaa !158
  %37 = load ptr, ptr %5, align 8, !tbaa !150
  call void @llvm.lifetime.end.p0(i64 8, ptr %5) #12
  ret ptr %37
}