; Function Attrs: nounwind uwtable
define noalias noundef ptr @Acb_MfsStart(ptr noundef %0, ptr noundef %1) local_unnamed_addr #0 {
  %3 = alloca %struct.timespec, align 8
  %4 = tail call noalias dereferenceable_or_null(176) ptr @calloc(i64 noundef 1, i64 noundef 176) #26
  store ptr %0, ptr %4, align 8, !tbaa !129
  %5 = getelementptr inbounds nuw i8, ptr %4, i64 8
  store ptr %1, ptr %5, align 8, !tbaa !133
  call void @llvm.lifetime.start.p0(i64 16, ptr nonnull %3) #25
  %6 = call i32 @clock_gettime(i32 noundef 1, ptr noundef nonnull %3) #25
  %7 = icmp slt i32 %6, 0
  br i1 %7, label %Abc_Clock.exit, label %8

8:                                                ; preds = %2
  %9 = load i64, ptr %3, align 8, !tbaa !134
  %10 = mul nsw i64 %9, 1000000
  %11 = getelementptr inbounds nuw i8, ptr %3, i64 8
  %12 = load i64, ptr %11, align 8, !tbaa !136
  %13 = sdiv i64 %12, 1000
  %14 = add nsw i64 %13, %10
  br label %Abc_Clock.exit

Abc_Clock.exit:                                   ; preds = %2, %8
  %.0.i = phi i64 [ %14, %8 ], [ -1, %2 ]
  call void @llvm.lifetime.end.p0(i64 16, ptr nonnull %3) #25
  %15 = getelementptr inbounds nuw i8, ptr %4, i64 120
  store i64 %.0.i, ptr %15, align 8, !tbaa !137
  %16 = call ptr @sat_solver_new() #25
  %17 = getelementptr inbounds nuw i8, ptr %4, i64 16
  store ptr %16, ptr %17, align 8, !tbaa !138
  %18 = call ptr @sat_solver_new() #25
  %19 = getelementptr inbounds nuw i8, ptr %4, i64 24
  store ptr %18, ptr %19, align 8, !tbaa !138
  %20 = call ptr @sat_solver_new() #25
  %21 = getelementptr inbounds nuw i8, ptr %4, i64 32
  store ptr %20, ptr %21, align 8, !tbaa !138
  %22 = call noalias dereferenceable_or_null(16) ptr @malloc(i64 noundef 16) #24
  %23 = getelementptr inbounds nuw i8, ptr %22, i64 4
  store i32 0, ptr %23, align 4, !tbaa !15
  store i32 100, ptr %22, align 8, !tbaa !31
  %24 = call noalias dereferenceable_or_null(400) ptr @malloc(i64 noundef 400) #24
  %25 = getelementptr inbounds nuw i8, ptr %22, i64 8
  store ptr %24, ptr %25, align 8, !tbaa !18
  %26 = getelementptr inbounds nuw i8, ptr %4, i64 40
  store ptr %22, ptr %26, align 8, !tbaa !140
  %27 = call noalias dereferenceable_or_null(16) ptr @malloc(i64 noundef 16) #24
  %28 = getelementptr inbounds nuw i8, ptr %27, i64 4
  store i32 0, ptr %28, align 4, !tbaa !15
  store i32 100, ptr %27, align 8, !tbaa !31
  %29 = call noalias dereferenceable_or_null(400) ptr @malloc(i64 noundef 400) #24
  %30 = getelementptr inbounds nuw i8, ptr %27, i64 8
  store ptr %29, ptr %30, align 8, !tbaa !18
  %31 = getelementptr inbounds nuw i8, ptr %4, i64 48
  store ptr %27, ptr %31, align 8, !tbaa !141
  %32 = call noalias dereferenceable_or_null(16) ptr @malloc(i64 noundef 16) #24
  %33 = getelementptr inbounds nuw i8, ptr %32, i64 4
  store i32 0, ptr %33, align 4, !tbaa !15
  store i32 100, ptr %32, align 8, !tbaa !31
  %34 = call noalias dereferenceable_or_null(400) ptr @malloc(i64 noundef 400) #24
  %35 = getelementptr inbounds nuw i8, ptr %32, i64 8
  store ptr %34, ptr %35, align 8, !tbaa !18
  %36 = getelementptr inbounds nuw i8, ptr %4, i64 56
  store ptr %32, ptr %36, align 8, !tbaa !142
  ret ptr %4
}